; Function Attrs: mustprogress nofree norecurse nosync nounwind willreturn memory(read, inaccessiblemem: none) uwtable
define dso_local noundef ptr @_ZN5ImGui11GetDrawDataEv() local_unnamed_addr #31 {
  %1 = load ptr, ptr @GImGui, align 8, !tbaa !211
  %2 = getelementptr inbounds nuw i8, ptr %1, i64 7784
  %3 = load ptr, ptr %2, align 8, !tbaa !432
  %4 = load ptr, ptr %3, align 8, !tbaa !433
  %5 = getelementptr inbounds nuw i8, ptr %4, i64 80
  %6 = load i8, ptr %5, align 8, !tbaa !798, !range !92, !noundef !93
  %7 = trunc nuw i8 %6 to i1
  %8 = select i1 %7, ptr %5, ptr null
  ret ptr %8
}